target datalayout = "e-m:e-p270:32:32-p271:32:32-p272:64:64-i64:64-i128:128-f80:128-n8:16:32:64-S128"
target triple = "x86_64-unknown-linux-gnu"

%struct.AddressSpace = type { %struct.rcu_head, ptr, ptr, ptr, i32, i32, ptr, %union.anon, %union.anon.0 }
%struct.rcu_head = type { ptr, ptr }
%union.anon = type { %struct.QTailQLink }
%struct.QTailQLink = type { ptr, ptr }
%union.anon.0 = type { %struct.QTailQLink }
%struct.EHCIPCIState = type { %struct.PCIDevice, %struct.EHCIState }
%struct.PCIDevice = type { %struct.DeviceState, i8, i8, ptr, ptr, ptr, ptr, ptr, i32, %struct.PCIReqIDCache, [64 x i8], [7 x %struct.PCIIORegion], %struct.AddressSpace, %struct.MemoryRegion, %struct.MemoryRegion, ptr, ptr, [3 x ptr], i8, i8, i32, i8, i32, ptr, ptr, ptr, ptr, ptr, ptr, %struct.MemoryRegion, %struct.MemoryRegion, %struct.MemoryRegion, ptr, i8, i32, i8, %struct.PCIExpressDevice, ptr, ptr, i32, i8, %struct.MemoryRegion, i32, ptr, ptr, ptr, ptr, ptr, i32 }
%struct.DeviceState = type { %struct.Object, ptr, ptr, i8, i8, i64, ptr, i32, i8, ptr, %struct.NamedGPIOListHead, %struct.NamedClockListHead, %struct.BusStateHead, i32, i32, i32, %struct.ResettableState, ptr, %struct.MemReentrancyGuard }
%struct.Object = type { ptr, ptr, ptr, i32, ptr }
%struct.NamedGPIOListHead = type { ptr }
%struct.NamedClockListHead = type { ptr }
%struct.BusStateHead = type { ptr }
%struct.ResettableState = type { i32, i8, i8 }
%struct.MemReentrancyGuard = type { i8 }
%struct.PCIReqIDCache = type { ptr, i32 }
%struct.PCIIORegion = type { i64, i64, i8, ptr, ptr }
%struct.PCIExpressDevice = type { i8, i8, i8, i16, %struct.PCIEAERLog, i16, i16, i16, %struct.PCIESriovPF, %struct.PCIESriovVF }
%struct.PCIEAERLog = type { i16, i16, ptr }
%struct.PCIESriovPF = type { i16, [7 x i8], ptr, ptr }
%struct.PCIESriovVF = type { ptr, i16 }
%struct.MemoryRegion = type { %struct.Object, i8, i8, i8, i8, i8, i8, i8, i8, i8, i8, ptr, ptr, ptr, ptr, ptr, ptr, i32, i128, i64, ptr, i64, i8, i8, i8, i8, i8, ptr, i64, i32, %union.anon.1, %union.anon.2, %union.anon.3, ptr, i32, ptr, ptr, i8 }
%union.anon.1 = type { %struct.QTailQLink }
%union.anon.2 = type { %struct.QTailQLink }
%union.anon.3 = type { %struct.QTailQLink }
%struct.EHCIState = type { %struct.USBBus, ptr, ptr, %struct.MemoryRegion, ptr, %struct.MemoryRegion, %struct.MemoryRegion, %struct.MemoryRegion, i32, i8, i16, i16, i16, i16, i32, [16 x i8], %union.anon.7, [6 x i32], ptr, ptr, i8, i32, i32, [6 x %struct.USBPort], [6 x ptr], i32, i32, %union.EHCIQueueHead, %union.EHCIQueueHead, i32, i32, %struct.USBPacket, %struct.QEMUSGList, i64, i32, i32, i8, ptr }
%struct.USBBus = type { %struct.BusState, ptr, i32, i32, i32, %union.anon.4, %union.anon.5, %union.anon.6 }
%struct.BusState = type { %struct.Object, ptr, ptr, ptr, i32, i8, i8, i32, %union.BusChildHead, %struct.BusStateEntry, %struct.ResettableState }
%union.BusChildHead = type { %struct.QTailQLink }
%struct.BusStateEntry = type { ptr, ptr }
%union.anon.4 = type { %struct.QTailQLink }
%union.anon.5 = type { %struct.QTailQLink }
%union.anon.6 = type { %struct.QTailQLink }
%union.anon.7 = type { [17 x i32] }
%struct.USBPort = type { ptr, i32, i32, [16 x i8], ptr, ptr, i32, %union.anon.8 }
%union.anon.8 = type { %struct.QTailQLink }
%union.EHCIQueueHead = type { %struct.QTailQLink }
%struct.USBPacket = type { i32, i64, ptr, i32, %struct.QEMUIOVector, i64, i8, i8, i32, i32, i32, ptr, %union.anon.12, %union.anon.13 }
%struct.QEMUIOVector = type { ptr, i32, %union.anon.9 }
%union.anon.9 = type { %struct.anon.10 }
%struct.anon.10 = type { i32, %struct.iovec }
%struct.iovec = type { ptr, i64 }
%union.anon.12 = type { %struct.QTailQLink }
%union.anon.13 = type { %struct.QTailQLink }
%struct.QEMUSGList = type { ptr, i32, i32, i64, ptr, ptr }

@.str = private unnamed_addr constant [13 x i8] c"pci-ehci-usb\00", align 1
@.str.6 = private unnamed_addr constant [96 x i8] c"/home/dtcxzyw/WorkSpace/Projects/compilers/llvm-opt-benchmark/bench/qemu/qemu/hw/usb/hcd-ehci.h\00", align 1
@__func__.PCI_EHCI = private unnamed_addr constant [9 x i8] c"PCI_EHCI\00", align 1
@address_space_memory = external global %struct.AddressSpace, align 8

; Function Attrs: nounwind sspstrong uwtable
define internal i32 @lduw_he_p(ptr noundef %ptr) #0 {
entry:
  %ptr.addr = alloca ptr, align 8
  %r = alloca i16, align 2
  store ptr %ptr, ptr %ptr.addr, align 8
  %0 = load ptr, ptr %ptr.addr, align 8
  call void @llvm.memcpy.p0.p0.i64(ptr align 2 %r, ptr align 1 %0, i64 2, i1 false)
  %1 = load i16, ptr %r, align 2
  %conv = zext i16 %1 to i32
  ret i32 %conv
}

; Function Attrs: nounwind sspstrong uwtable
define internal i32 @lduw_le_p(ptr noundef %ptr) #0 {
entry:
  %ptr.addr = alloca ptr, align 8
  store ptr %ptr, ptr %ptr.addr, align 8
  %0 = load ptr, ptr %ptr.addr, align 8
  %call = call i32 @lduw_he_p(ptr noundef %0)
  %conv = trunc i32 %call to i16
  %conv1 = zext i16 %conv to i32
  ret i32 %conv1
}

; Function Attrs: nounwind sspstrong uwtable
define internal i64 @range_get_last(i64 noundef %offset, i64 noundef %len) #0 {
entry:
  %offset.addr = alloca i64, align 8
  %len.addr = alloca i64, align 8
  store i64 %offset, ptr %offset.addr, align 8
  store i64 %len, ptr %len.addr, align 8
  %0 = load i64, ptr %offset.addr, align 8
  %1 = load i64, ptr %len.addr, align 8
  %add = add i64 %0, %1
  %sub = sub i64 %add, 1
  ret i64 %sub
}

; Function Attrs: nounwind sspstrong uwtable
define internal ptr @pci_get_address_space(ptr noundef %dev) #0 {
entry:
  %dev.addr = alloca ptr, align 8
  store ptr %dev, ptr %dev.addr, align 8
  %0 = load ptr, ptr %dev.addr, align 8
  %bus_master_as = getelementptr inbounds %struct.PCIDevice, ptr %0, i32 0, i32 12
  ret ptr %bus_master_as
}

; Function Attrs: nounwind sspstrong uwtable
define internal zeroext i16 @pci_get_word(ptr noundef %config) #0 {
entry:
  %config.addr = alloca ptr, align 8
  store ptr %config, ptr %config.addr, align 8
  %0 = load ptr, ptr %config.addr, align 8
  %call = call i32 @lduw_le_p(ptr noundef %0)
  %conv = trunc i32 %call to i16
  ret i16 %conv
}

; Function Attrs: nounwind sspstrong uwtable
define internal i32 @range_covers_byte(i64 noundef %offset, i64 noundef %len, i64 noundef %byte) #0 {
entry:
  %offset.addr = alloca i64, align 8
  %len.addr = alloca i64, align 8
  %byte.addr = alloca i64, align 8
  store i64 %offset, ptr %offset.addr, align 8
  store i64 %len, ptr %len.addr, align 8
  store i64 %byte, ptr %byte.addr, align 8
  %0 = load i64, ptr %offset.addr, align 8
  %1 = load i64, ptr %byte.addr, align 8
  %cmp = icmp ule i64 %0, %1
  br i1 %cmp, label %land.rhs, label %land.end

land.rhs:                                         ; preds = %entry
  %2 = load i64, ptr %byte.addr, align 8
  %3 = load i64, ptr %offset.addr, align 8
  %4 = load i64, ptr %len.addr, align 8
  %call = call i64 @range_get_last(i64 noundef %3, i64 noundef %4)
  %cmp1 = icmp ule i64 %2, %call
  br label %land.end

land.end:                                         ; preds = %land.rhs, %entry
  %5 = phi i1 [ false, %entry ], [ %cmp1, %land.rhs ]
  %land.ext = zext i1 %5 to i32
  ret i32 %land.ext
}

; Function Attrs: nounwind sspstrong uwtable
define internal ptr @PCI_EHCI(ptr noundef %obj) #0 {
entry:
  %obj.addr = alloca ptr, align 8
  store ptr %obj, ptr %obj.addr, align 8
  %0 = load ptr, ptr %obj.addr, align 8
  %call = call ptr @object_dynamic_cast_assert(ptr noundef %0, ptr noundef @.str, ptr noundef @.str.6, i32 noundef 331, ptr noundef @__func__.PCI_EHCI)
  ret ptr %call
}

; Function Attrs: nounwind sspstrong uwtable
define internal void @usb_ehci_pci_write_config(ptr noundef %dev, i32 noundef %addr, i32 noundef %val, i32 noundef %l) #0 {
entry:
  %dev.addr = alloca ptr, align 8
  %addr.addr = alloca i32, align 4
  %val.addr = alloca i32, align 4
  %l.addr = alloca i32, align 4
  %i = alloca ptr, align 8
  %busmaster = alloca i8, align 1
  store ptr %dev, ptr %dev.addr, align 8
  store i32 %addr, ptr %addr.addr, align 4
  store i32 %val, ptr %val.addr, align 4
  store i32 %l, ptr %l.addr, align 4
  %0 = load ptr, ptr %dev.addr, align 8
  %call = call ptr @PCI_EHCI(ptr noundef %0)
  store ptr %call, ptr %i, align 8
  %1 = load ptr, ptr %dev.addr, align 8
  %2 = load i32, ptr %addr.addr, align 4
  %3 = load i32, ptr %val.addr, align 4
  %4 = load i32, ptr %l.addr, align 4
  call void @pci_default_write_config(ptr noundef %1, i32 noundef %2, i32 noundef %3, i32 noundef %4)
  %5 = load i32, ptr %addr.addr, align 4
  %conv = zext i32 %5 to i64
  %6 = load i32, ptr %l.addr, align 4
  %conv1 = sext i32 %6 to i64
  %call2 = call i32 @range_covers_byte(i64 noundef %conv, i64 noundef %conv1, i64 noundef 4)
  %tobool = icmp ne i32 %call2, 0
  br i1 %tobool, label %if.end, label %if.then

if.then:                                          ; preds = %entry
  br label %return

if.end:                                           ; preds = %entry
  %7 = load ptr, ptr %dev.addr, align 8
  %config = getelementptr inbounds %struct.PCIDevice, ptr %7, i32 0, i32 3
  %8 = load ptr, ptr %config, align 8
  %add.ptr = getelementptr i8, ptr %8, i64 4
  %call3 = call zeroext i16 @pci_get_word(ptr noundef %add.ptr)
  %conv4 = zext i16 %call3 to i32
  %and = and i32 %conv4, 4
  %tobool5 = icmp ne i32 %and, 0
  %frombool = zext i1 %tobool5 to i8
  store i8 %frombool, ptr %busmaster, align 1
  %9 = load i8, ptr %busmaster, align 1
  %tobool6 = trunc i8 %9 to i1
  br i1 %tobool6, label %cond.true, label %cond.false

cond.true:                                        ; preds = %if.end
  %10 = load ptr, ptr %dev.addr, align 8
  %call8 = call ptr @pci_get_address_space(ptr noundef %10)
  br label %cond.end

cond.false:                                       ; preds = %if.end
  br label %cond.end

cond.end:                                         ; preds = %cond.false, %cond.true
  %cond = phi ptr [ %call8, %cond.true ], [ @address_space_memory, %cond.false ]
  %11 = load ptr, ptr %i, align 8
  %ehci = getelementptr inbounds %struct.EHCIPCIState, ptr %11, i32 0, i32 1
  %as = getelementptr inbounds %struct.EHCIState, ptr %ehci, i32 0, i32 4
  store ptr %cond, ptr %as, align 16
  br label %return

return:                                           ; preds = %cond.end, %if.then
  ret void
}