; Function Attrs: nounwind sspstrong uwtable
define internal void @usb_ehci_pci_write_config(ptr noundef %dev, i32 noundef %addr, i32 noundef %val, i32 noundef %l) #0 {
entry:
  %call.i = tail call ptr @object_dynamic_cast_assert(ptr noundef %dev, ptr noundef nonnull @.str, ptr noundef nonnull @.str.6, i32 noundef 331, ptr noundef nonnull @__func__.PCI_EHCI) #4
  tail call void @pci_default_write_config(ptr noundef %dev, i32 noundef %addr, i32 noundef %val, i32 noundef %l) #4
  %conv = zext i32 %addr to i64
  %conv1 = sext i32 %l to i64
  %cmp.i = icmp ugt i32 %addr, 4
  %add.i.i = add nsw i64 %conv, -1
  %sub.i.i = add nsw i64 %add.i.i, %conv1
  %cmp1.i = icmp ult i64 %sub.i.i, 4
  %narrow.i.not = select i1 %cmp.i, i1 true, i1 %cmp1.i
  br i1 %narrow.i.not, label %return, label %if.end

if.end:                                           ; preds = %entry
  %config = getelementptr inbounds nuw i8, ptr %dev, i64 168
  %0 = load ptr, ptr %config, align 8
  %add.ptr = getelementptr i8, ptr %0, i64 4
  %add.ptr.val = load i16, ptr %add.ptr, align 1
  %1 = and i16 %add.ptr.val, 4
  %tobool5.not = icmp eq i16 %1, 0
  %bus_master_as.i = getelementptr inbounds nuw i8, ptr %dev, i64 576
  %spec.select = select i1 %tobool5.not, ptr @address_space_memory, ptr %bus_master_as.i
  %as = getelementptr inbounds nuw i8, ptr %call.i, i64 3088
  store ptr %spec.select, ptr %as, align 16
  br label %return

return:                                           ; preds = %entry, %if.end
  ret void
}